Certificate:
    Data:
        Version: 3 (0x2)
        Serial Number: 286 (0x11e)
    Signature Algorithm: sha256WithRSAEncryption
        Issuer: C=KR, ST=Seoul, L=Seoul, O=SSU, OU=SW, CN=ca/emailAddress=ca@ssu.ac.kr
        Validity
            Not Before: Oct  2 06:38:00 2019 GMT
            Not After : Oct  1 06:38:00 2020 GMT
        Subject: C=KR, ST=Seoul, O=SSU, OU=SW, CN=server/emailAddress=server@ssu.ac.kr
        Subject Public Key Info:
            Public Key Algorithm: rsaEncryption
                Public-Key: (1024 bit)
                Modulus:
                    00:bd:93:ad:cf:33:e3:a5:04:c6:25:88:74:18:ad:
                    9f:78:25:fe:7c:82:4c:bb:d0:7e:46:1c:a6:cd:02:
                    cd:49:d7:07:34:e7:0a:49:15:d1:88:ac:e3:ee:b5:
                    d6:ca:05:0c:ad:d6:20:dd:b2:8b:07:05:13:e1:d5:
                    71:77:ed:97:01:bb:97:0c:1e:2d:cb:9a:79:90:07:
                    cf:43:f3:15:8c:8e:6f:1e:f5:81:ac:68:d0:06:75:
                    c4:90:ed:0f:1b:a9:ec:a4:05:ae:6b:36:e1:b0:88:
                    35:7e:3c:05:4a:13:4e:8b:a9:0f:06:2c:f2:7e:e2:
                    58:62:ab:f1:02:56:33:b1:b9
                Exponent: 65537 (0x10001)
        X509v3 extensions:
            X509v3 Basic Constraints: 
                CA:FALSE
            Netscape Comment: 
                OpenSSL Generated Certificate
            X509v3 Subject Key Identifier: 
                01:4E:1F:A4:C7:26:3C:60:2D:E5:40:C8:70:5F:11:7E:4F:19:8D:73
            X509v3 Authority Key Identifier: 
                keyid:74:E9:6F:9C:04:9F:08:A6:1F:85:40:39:F7:4A:88:13:BF:3C:15:2A

    Signature Algorithm: sha256WithRSAEncryption
         7a:52:59:58:a3:06:4f:ab:f8:a1:ae:e5:07:97:f5:3f:6e:41:
         d5:eb:6a:71:f3:22:13:56:b6:d2:b2:69:7c:4e:cc:4f:92:bc:
         db:29:a9:48:1c:d4:84:7b:0f:9c:35:7b:c1:da:de:26:3e:2a:
         d1:4f:d3:aa:76:de:19:23:7e:93:d5:02:b4:f3:4c:80:17:d7:
         f0:bc:8a:36:e3:72:d4:8b:55:fe:26:d4:c3:54:f1:6c:ed:e6:
         1d:b2:3c:14:7b:f9:f2:a4:03:99:96:fe:9e:0b:f4:42:25:a5:
         fd:a8:d5:5e:57:c7:e6:53:13:f3:6a:fe:9b:06:46:55:82:0a:
         dd:1d
-----BEGIN CERTIFICATE-----
MIICzjCCAjegAwIBAgICAR4wDQYJKoZIhvcNAQELBQAwcjELMAkGA1UEBhMCS1Ix
DjAMBgNVBAgMBVNlb3VsMQ4wDAYDVQQHDAVTZW91bDEMMAoGA1UECgwDU1NVMQsw
CQYDVQQLDAJTVzELMAkGA1UEAwwCY2ExGzAZBgkqhkiG9w0BCQEWDGNhQHNzdS5h
Yy5rcjAeFw0xOTEwMDIwNjM4MDBaFw0yMDEwMDEwNjM4MDBaMGoxCzAJBgNVBAYT
AktSMQ4wDAYDVQQIDAVTZW91bDEMMAoGA1UECgwDU1NVMQswCQYDVQQLDAJTVzEP
MA0GA1UEAwwGc2VydmVyMR8wHQYJKoZIhvcNAQkBFhBzZXJ2ZXJAc3N1LmFjLmty
MIGfMA0GCSqGSIb3DQEBAQUAA4GNADCBiQKBgQC9k63PM+OlBMYliHQYrZ94Jf58
gky70H5GHKbNAs1J1wc05wpJFdGIrOPutdbKBQyt1iDdsosHBRPh1XF37ZcBu5cM
Hi3LmnmQB89D8xWMjm8e9YGsaNAGdcSQ7Q8bqeykBa5rNuGwiDV+PAVKE06LqQ8G
LPJ+4lhiq/ECVjOxuQIDAQABo3sweTAJBgNVHRMEAjAAMCwGCWCGSAGG+EIBDQQf
Fh1PcGVuU1NMIEdlbmVyYXRlZCBDZXJ0aWZpY2F0ZTAdBgNVHQ4EFgQUAU4fpMcm
PGAt5UDIcF8Rfk8ZjXMwHwYDVR0jBBgwFoAUdOlvnASfCKYfhUA590qIE788FSow
DQYJKoZIhvcNAQELBQADgYEAelJZWKMGT6v4oa7lB5f1P25B1etqcfMiE1a20rJp
fE7MT5K82ympSBzUhHsPnDV7wdreJj4q0U/TqnbeGSN+k9UCtPNMgBfX8LyKNuNy
1ItV/ibUw1TxbO3mHbI8FHv58qQDmZb+ngv0QiWl/ajVXlfH5lMT82r+mwZGVYIK
3R0=
-----END CERTIFICATE-----
